; Function Attrs: null_pointer_is_valid sspstrong uwtable
define internal range(i32 -2147483647, -2147483648) i32 @awdl_tag_sync_tree(ptr noundef %0, ptr readnone captures(none) %1, ptr noundef %2, ptr readnone captures(none) %3) #0 {
  %5 = tail call i32 @tvb_reported_length(ptr noundef %0)
  %6 = add i32 %5, -6
  %.not7 = icmp slt i32 %6, 0
  br i1 %.not7, label %._crit_edge, label %.lr.ph

.lr.ph:                                           ; preds = %4, %.lr.ph
  %.08 = phi i32 [ %9, %.lr.ph ], [ 0, %4 ]
  %7 = load i32, ptr @hf_awdl_synctree_addr, align 4
  %8 = tail call ptr @proto_tree_add_item(ptr noundef %2, i32 noundef %7, ptr noundef %0, i32 noundef %.08, i32 noundef 6, i32 noundef 0)
  %9 = add i32 %.08, 6
  %.not = icmp sgt i32 %9, %6
  br i1 %.not, label %._crit_edge, label %.lr.ph, !llvm.loop !15

._crit_edge:                                      ; preds = %.lr.ph, %4
  %.0.lcssa = phi i32 [ 0, %4 ], [ %9, %.lr.ph ]
  ret i32 %.0.lcssa
}